target datalayout = "e-m:e-p270:32:32-p271:32:32-p272:64:64-i64:64-i128:128-f80:128-n8:16:32:64-S128"
target triple = "x86_64-pc-linux-gnu"

%struct.channel_name = type { ptr, ptr }

@.str.1 = private unnamed_addr constant [3 x i8] c"%s\00", align 1
@.str.6 = private unnamed_addr constant [17 x i8] c"ambisonic ACN %d\00", align 1
@.str.7 = private unnamed_addr constant [5 x i8] c"none\00", align 1
@.str.8 = private unnamed_addr constant [8 x i8] c"unknown\00", align 1
@.str.9 = private unnamed_addr constant [7 x i8] c"unused\00", align 1
@.str.10 = private unnamed_addr constant [8 x i8] c"user %d\00", align 1

; Function Attrs: nounwind uwtable
define void @av_channel_description_bprint(ptr noundef %0, i32 noundef %1) #0 {
  %3 = alloca ptr, align 8
  %4 = alloca i32, align 4
  store ptr %0, ptr %3, align 8, !tbaa !4
  store i32 %1, ptr %4, align 4, !tbaa !9
  %5 = load i32, ptr %4, align 4, !tbaa !9
  %6 = icmp sge i32 %5, 1024
  br i1 %6, label %7, label %14

7:                                                ; preds = %2
  %8 = load i32, ptr %4, align 4, !tbaa !9
  %9 = icmp sle i32 %8, 2047
  br i1 %9, label %10, label %14

10:                                               ; preds = %7
  %11 = load ptr, ptr %3, align 8, !tbaa !4
  %12 = load i32, ptr %4, align 4, !tbaa !9
  %13 = sub nsw i32 %12, 1024
  call void (ptr, ptr, ...) @av_bprintf(ptr noundef %11, ptr noundef @.str.6, i32 noundef %13)
  br label %54

14:                                               ; preds = %7, %2
  %15 = load i32, ptr %4, align 4, !tbaa !9
  %16 = zext i32 %15 to i64
  %17 = icmp ult i64 %16, 63
  br i1 %17, label %18, label %32

18:                                               ; preds = %14
  %19 = load i32, ptr %4, align 4, !tbaa !9
  %20 = sext i32 %19 to i64
  %21 = getelementptr inbounds [63 x %struct.channel_name], ptr @channel_names, i64 0, i64 %20
  %22 = getelementptr inbounds nuw %struct.channel_name, ptr %21, i32 0, i32 1
  %23 = load ptr, ptr %22, align 8, !tbaa !19
  %24 = icmp ne ptr %23, null
  br i1 %24, label %25, label %32

25:                                               ; preds = %18
  %26 = load ptr, ptr %3, align 8, !tbaa !4
  %27 = load i32, ptr %4, align 4, !tbaa !9
  %28 = sext i32 %27 to i64
  %29 = getelementptr inbounds [63 x %struct.channel_name], ptr @channel_names, i64 0, i64 %28
  %30 = getelementptr inbounds nuw %struct.channel_name, ptr %29, i32 0, i32 1
  %31 = load ptr, ptr %30, align 8, !tbaa !19
  call void (ptr, ptr, ...) @av_bprintf(ptr noundef %26, ptr noundef @.str.1, ptr noundef %31)
  br label %53

32:                                               ; preds = %18, %14
  %33 = load i32, ptr %4, align 4, !tbaa !9
  %34 = icmp eq i32 %33, -1
  br i1 %34, label %35, label %37

35:                                               ; preds = %32
  %36 = load ptr, ptr %3, align 8, !tbaa !4
  call void (ptr, ptr, ...) @av_bprintf(ptr noundef %36, ptr noundef @.str.7)
  br label %52

37:                                               ; preds = %32
  %38 = load i32, ptr %4, align 4, !tbaa !9
  %39 = icmp eq i32 %38, 768
  br i1 %39, label %40, label %42

40:                                               ; preds = %37
  %41 = load ptr, ptr %3, align 8, !tbaa !4
  call void (ptr, ptr, ...) @av_bprintf(ptr noundef %41, ptr noundef @.str.8)
  br label %51

42:                                               ; preds = %37
  %43 = load i32, ptr %4, align 4, !tbaa !9
  %44 = icmp eq i32 %43, 512
  br i1 %44, label %45, label %47

45:                                               ; preds = %42
  %46 = load ptr, ptr %3, align 8, !tbaa !4
  call void (ptr, ptr, ...) @av_bprintf(ptr noundef %46, ptr noundef @.str.9)
  br label %50

47:                                               ; preds = %42
  %48 = load ptr, ptr %3, align 8, !tbaa !4
  %49 = load i32, ptr %4, align 4, !tbaa !9
  call void (ptr, ptr, ...) @av_bprintf(ptr noundef %48, ptr noundef @.str.10, i32 noundef %49)
  br label %50

50:                                               ; preds = %47, %45
  br label %51

51:                                               ; preds = %50, %40
  br label %52

52:                                               ; preds = %51, %35
  br label %53

53:                                               ; preds = %52, %25
  br label %54

54:                                               ; preds = %53, %10
  ret void
}